; Function Attrs: mustprogress uwtable
define noundef i32 @_ZN6icu_7710Normalizer10quickCheckERKNS_13UnicodeStringE18UNormalizationModeiR10UErrorCode(ptr noundef nonnull align 8 dereferenceable(64) %0, i32 noundef %1, i32 noundef %2, ptr noundef nonnull align 4 dereferenceable(4) %3) local_unnamed_addr #1 align 2 personality ptr @__gxx_personality_v0 {
  %5 = alloca %"class.icu_77::FilteredNormalizer2", align 8
  %6 = tail call noundef ptr @_ZN6icu_7718Normalizer2Factory11getInstanceE18UNormalizationModeR10UErrorCode(i32 noundef %1, ptr noundef nonnull align 4 dereferenceable(4) %3)
  %7 = load i32, ptr %3, align 4, !tbaa !24
  %8 = icmp sgt i32 %7, 0
  br i1 %8, label %24, label %9

9:                                                ; preds = %4
  %10 = and i32 %2, 32
  %.not13 = icmp eq i32 %10, 0
  br i1 %.not13, label %19, label %11

11:                                               ; preds = %9
  call void @llvm.lifetime.start.p0(i64 24, ptr nonnull %5) #10
  %12 = tail call ptr @uniset_getUnicode32Instance_77(ptr noundef nonnull align 4 dereferenceable(4) %3)
  store ptr getelementptr inbounds nuw inrange(-16, 144) (i8, ptr @_ZTVN6icu_7719FilteredNormalizer2E, i64 16), ptr %5, align 8, !tbaa !3
  %13 = getelementptr inbounds nuw i8, ptr %5, i64 8
  store ptr %6, ptr %13, align 8, !tbaa !28
  %14 = getelementptr inbounds nuw i8, ptr %5, i64 16
  store ptr %12, ptr %14, align 8, !tbaa !29
  %15 = invoke noundef i32 @_ZNK6icu_7719FilteredNormalizer210quickCheckERKNS_13UnicodeStringER10UErrorCode(ptr noundef nonnull align 8 dereferenceable(24) %5, ptr noundef nonnull align 8 dereferenceable(64) %0, ptr noundef nonnull align 4 dereferenceable(4) %3)
          to label %16 unwind label %17

16:                                               ; preds = %11
  call void @_ZN6icu_7719FilteredNormalizer2D1Ev(ptr noundef nonnull align 8 dereferenceable(24) %5) #10
  call void @llvm.lifetime.end.p0(i64 24, ptr nonnull %5) #10
  br label %24

17:                                               ; preds = %11
  %18 = landingpad { ptr, i32 }
          cleanup
  call void @_ZN6icu_7719FilteredNormalizer2D1Ev(ptr noundef nonnull align 8 dereferenceable(24) %5) #10
  call void @llvm.lifetime.end.p0(i64 24, ptr nonnull %5) #10
  resume { ptr, i32 } %18

19:                                               ; preds = %9
  %20 = load ptr, ptr %6, align 8, !tbaa !3
  %21 = getelementptr inbounds nuw i8, ptr %20, i64 104
  %22 = load ptr, ptr %21, align 8
  %23 = tail call noundef i32 %22(ptr noundef nonnull align 8 dereferenceable(8) %6, ptr noundef nonnull align 8 dereferenceable(64) %0, ptr noundef nonnull align 4 dereferenceable(4) %3)
  br label %24

24:                                               ; preds = %4, %19, %16
  %.0 = phi i32 [ %15, %16 ], [ %23, %19 ], [ 2, %4 ]
  ret i32 %.0
}